target datalayout = "e-m:e-p270:32:32-p271:32:32-p272:64:64-i64:64-i128:128-f80:128-n8:16:32:64-S128"
target triple = "x86_64-unknown-linux-gnu"

%"class.rocksdb::BuiltinFilterBitsBuilder" = type { %"class.rocksdb::FilterBitsBuilder" }
%"class.rocksdb::FilterBitsBuilder" = type { ptr }
%"class.rocksdb::(anonymous namespace)::LegacyBloomBitsBuilder" = type { %"class.rocksdb::BuiltinFilterBitsBuilder", i32, i32, %"class.std::vector.37", ptr }
%"class.std::vector.37" = type { %"struct.std::_Vector_base.38" }
%"struct.std::_Vector_base.38" = type { %"struct.std::_Vector_base<unsigned int, std::allocator<unsigned int>>::_Vector_impl" }
%"struct.std::_Vector_base<unsigned int, std::allocator<unsigned int>>::_Vector_impl" = type { %"struct.std::_Vector_base<unsigned int, std::allocator<unsigned int>>::_Vector_impl_data" }
%"struct.std::_Vector_base<unsigned int, std::allocator<unsigned int>>::_Vector_impl_data" = type { ptr, ptr, ptr }

; Function Attrs: mustprogress nounwind uwtable
define internal noundef i32 @_ZN7rocksdb12_GLOBAL__N_122LegacyBloomBitsBuilder23GetTotalBitsForLocalityEj(ptr noundef nonnull align 8 dereferenceable(48) %this, i32 noundef %total_bits) #1 align 2 {
entry:
  %this.addr = alloca ptr, align 8
  %total_bits.addr = alloca i32, align 4
  %num_lines = alloca i32, align 4
  store ptr %this, ptr %this.addr, align 8
  store i32 %total_bits, ptr %total_bits.addr, align 4
  %0 = load i32, ptr %total_bits.addr, align 4
  %add = add i32 %0, 512
  %sub = sub i32 %add, 1
  %div = udiv i32 %sub, 512
  store i32 %div, ptr %num_lines, align 4
  %1 = load i32, ptr %num_lines, align 4
  %rem = urem i32 %1, 2
  %cmp = icmp eq i32 %rem, 0
  br i1 %cmp, label %if.then, label %if.end

if.then:                                          ; preds = %entry
  %2 = load i32, ptr %num_lines, align 4
  %inc = add i32 %2, 1
  store i32 %inc, ptr %num_lines, align 4
  br label %if.end

if.end:                                           ; preds = %if.then, %entry
  %3 = load i32, ptr %num_lines, align 4
  %mul = mul i32 %3, 512
  ret i32 %mul
}

; Function Attrs: mustprogress nounwind uwtable
define linkonce_odr noundef nonnull align 8 dereferenceable(8) ptr @_ZSt3minImERKT_S2_S2_(ptr noundef nonnull align 8 dereferenceable(8) %__a, ptr noundef nonnull align 8 dereferenceable(8) %__b) #1 comdat {
entry:
  %retval = alloca ptr, align 8
  %__a.addr = alloca ptr, align 8
  %__b.addr = alloca ptr, align 8
  store ptr %__a, ptr %__a.addr, align 8
  store ptr %__b, ptr %__b.addr, align 8
  %0 = load ptr, ptr %__b.addr, align 8
  %1 = load i64, ptr %0, align 8
  %2 = load ptr, ptr %__a.addr, align 8
  %3 = load i64, ptr %2, align 8
  %cmp = icmp ult i64 %1, %3
  br i1 %cmp, label %if.then, label %if.end

if.then:                                          ; preds = %entry
  %4 = load ptr, ptr %__b.addr, align 8
  store ptr %4, ptr %retval, align 8
  br label %return

if.end:                                           ; preds = %entry
  %5 = load ptr, ptr %__a.addr, align 8
  store ptr %5, ptr %retval, align 8
  br label %return

return:                                           ; preds = %if.end, %if.then
  %6 = load ptr, ptr %retval, align 8
  ret ptr %6
}

; Function Attrs: mustprogress uwtable
define internal noundef i32 @_ZN7rocksdb12_GLOBAL__N_122LegacyBloomBitsBuilder14CalculateSpaceEmPjS2_(ptr noundef nonnull align 8 dereferenceable(48) %this, i64 noundef %num_entries, ptr noundef %total_bits, ptr noundef %num_lines) #0 align 2 {
entry:
  %this.addr = alloca ptr, align 8
  %num_entries.addr = alloca i64, align 8
  %total_bits.addr = alloca ptr, align 8
  %num_lines.addr = alloca ptr, align 8
  %total_bits_tmp = alloca i64, align 8
  %ref.tmp = alloca i64, align 8
  %sz = alloca i32, align 4
  store ptr %this, ptr %this.addr, align 8
  store i64 %num_entries, ptr %num_entries.addr, align 8
  store ptr %total_bits, ptr %total_bits.addr, align 8
  store ptr %num_lines, ptr %num_lines.addr, align 8
  %this1 = load ptr, ptr %this.addr, align 8
  %0 = load i64, ptr %num_entries.addr, align 8
  %cmp = icmp ne i64 %0, 0
  br i1 %cmp, label %if.then, label %if.else

if.then:                                          ; preds = %entry
  %1 = load i64, ptr %num_entries.addr, align 8
  %bits_per_key_ = getelementptr inbounds %"class.rocksdb::(anonymous namespace)::LegacyBloomBitsBuilder", ptr %this1, i32 0, i32 1
  %2 = load i32, ptr %bits_per_key_, align 8
  %conv = sext i32 %2 to i64
  %mul = mul i64 %1, %conv
  store i64 %mul, ptr %total_bits_tmp, align 8
  store i64 4294901760, ptr %ref.tmp, align 8
  %call = call noundef nonnull align 8 dereferenceable(8) ptr @_ZSt3minImERKT_S2_S2_(ptr noundef nonnull align 8 dereferenceable(8) %total_bits_tmp, ptr noundef nonnull align 8 dereferenceable(8) %ref.tmp)
  %3 = load i64, ptr %call, align 8
  store i64 %3, ptr %total_bits_tmp, align 8
  %4 = load i64, ptr %total_bits_tmp, align 8
  %conv2 = trunc i64 %4 to i32
  %call3 = call noundef i32 @_ZN7rocksdb12_GLOBAL__N_122LegacyBloomBitsBuilder23GetTotalBitsForLocalityEj(ptr noundef nonnull align 8 dereferenceable(48) %this1, i32 noundef %conv2)
  %5 = load ptr, ptr %total_bits.addr, align 8
  store i32 %call3, ptr %5, align 4
  %6 = load ptr, ptr %total_bits.addr, align 8
  %7 = load i32, ptr %6, align 4
  %div = udiv i32 %7, 512
  %8 = load ptr, ptr %num_lines.addr, align 8
  store i32 %div, ptr %8, align 4
  br label %if.end

if.else:                                          ; preds = %entry
  %9 = load ptr, ptr %total_bits.addr, align 8
  store i32 0, ptr %9, align 4
  %10 = load ptr, ptr %num_lines.addr, align 8
  store i32 0, ptr %10, align 4
  br label %if.end

if.end:                                           ; preds = %if.else, %if.then
  %11 = load ptr, ptr %total_bits.addr, align 8
  %12 = load i32, ptr %11, align 4
  %div4 = udiv i32 %12, 8
  store i32 %div4, ptr %sz, align 4
  %13 = load i32, ptr %sz, align 4
  %add = add i32 %13, 5
  store i32 %add, ptr %sz, align 4
  %14 = load i32, ptr %sz, align 4
  ret i32 %14
}

; Function Attrs: mustprogress uwtable
define internal noundef i64 @_ZN7rocksdb12_GLOBAL__N_122LegacyBloomBitsBuilder14CalculateSpaceEm(ptr noundef nonnull align 8 dereferenceable(48) %this, i64 noundef %num_entries) unnamed_addr #0 align 2 {
entry:
  %this.addr = alloca ptr, align 8
  %num_entries.addr = alloca i64, align 8
  %dont_care1 = alloca i32, align 4
  %dont_care2 = alloca i32, align 4
  store ptr %this, ptr %this.addr, align 8
  store i64 %num_entries, ptr %num_entries.addr, align 8
  %this1 = load ptr, ptr %this.addr, align 8
  %0 = load i64, ptr %num_entries.addr, align 8
  %call = call noundef i32 @_ZN7rocksdb12_GLOBAL__N_122LegacyBloomBitsBuilder14CalculateSpaceEmPjS2_(ptr noundef nonnull align 8 dereferenceable(48) %this1, i64 noundef %0, ptr noundef %dont_care1, ptr noundef %dont_care2)
  %conv = zext i32 %call to i64
  ret i64 %conv
}