; Function Attrs: mustprogress nofree norecurse nosync nounwind willreturn memory(argmem: read) uwtable
define internal noundef i64 @_ZN7rocksdb12_GLOBAL__N_122LegacyBloomBitsBuilder14CalculateSpaceEm(ptr nocapture noundef nonnull readonly align 8 dereferenceable(48) %this, i64 noundef %num_entries) unnamed_addr #16 align 2 {
entry:
  %cmp.not.i = icmp eq i64 %num_entries, 0
  br i1 %cmp.not.i, label %_ZN7rocksdb12_GLOBAL__N_122LegacyBloomBitsBuilder14CalculateSpaceEmPjS2_.exit, label %if.then.i

if.then.i:                                        ; preds = %entry
  %0 = getelementptr inbounds i8, ptr %this, i64 8
  %this.val = load i32, ptr %0, align 8
  %conv.i = sext i32 %this.val to i64
  %mul.i = mul i64 %conv.i, %num_entries
  %.sroa.speculated.i = tail call i64 @llvm.umin.i64(i64 %mul.i, i64 4294901760)
  %conv2.i = trunc i64 %.sroa.speculated.i to i32
  %sub.i.i = add nuw i32 %conv2.i, 511
  %div3.i.i = and i32 %sub.i.i, -512
  %1 = and i32 %sub.i.i, 512
  %2 = xor i32 %1, 512
  %spec.select.i.i = or i32 %2, %div3.i.i
  %3 = lshr exact i32 %spec.select.i.i, 3
  %4 = or disjoint i32 %3, 5
  %5 = zext nneg i32 %4 to i64
  br label %_ZN7rocksdb12_GLOBAL__N_122LegacyBloomBitsBuilder14CalculateSpaceEmPjS2_.exit

_ZN7rocksdb12_GLOBAL__N_122LegacyBloomBitsBuilder14CalculateSpaceEmPjS2_.exit: ; preds = %entry, %if.then.i
  %spec.select.i.sink.i = phi i64 [ %5, %if.then.i ], [ 5, %entry ]
  ret i64 %spec.select.i.sink.i
}